target datalayout = "e-m:e-p270:32:32-p271:32:32-p272:64:64-i64:64-i128:128-f80:128-n8:16:32:64-S128"
target triple = "x86_64-pc-linux-gnu"

%"class.o3dgc::BinaryStream" = type <{ %"class.o3dgc::Vector", i32, [4 x i8] }>
%"class.o3dgc::Vector" = type { ptr, i64, i64 }
%"class.o3dgc::Vector.0" = type { ptr, i64, i64 }

; Function Attrs: mustprogress nounwind uwtable
define linkonce_odr hidden noundef nonnull align 1 dereferenceable(1) ptr @_ZN5o3dgc6VectorIhEixEm(ptr noundef nonnull align 8 dereferenceable(24) %0, i64 noundef %1) #2 comdat align 2 {
  %3 = alloca ptr, align 8
  %4 = alloca i64, align 8
  store ptr %0, ptr %3, align 8
  store i64 %1, ptr %4, align 8
  %5 = load ptr, ptr %3, align 8
  %6 = getelementptr inbounds nuw %"class.o3dgc::Vector", ptr %5, i32 0, i32 0
  %7 = load ptr, ptr %6, align 8
  %8 = load i64, ptr %4, align 8
  %9 = getelementptr inbounds nuw i8, ptr %7, i64 %8
  ret ptr %9
}

; Function Attrs: inlinehint mustprogress nounwind uwtable
define linkonce_odr hidden noundef i64 @_ZN5o3dgc9IntToUIntEl(i64 noundef %0) #8 comdat {
  %2 = alloca i64, align 8
  store i64 %0, ptr %2, align 8
  %3 = load i64, ptr %2, align 8
  %4 = icmp slt i64 %3, 0
  br i1 %4, label %5, label %9

5:                                                ; preds = %1
  %6 = load i64, ptr %2, align 8
  %7 = mul nsw i64 2, %6
  %8 = sub nsw i64 -1, %7
  br label %12

9:                                                ; preds = %1
  %10 = load i64, ptr %2, align 8
  %11 = mul nsw i64 2, %10
  br label %12

12:                                               ; preds = %9, %5
  %13 = phi i64 [ %8, %5 ], [ %11, %9 ]
  ret i64 %13
}

; Function Attrs: mustprogress uwtable
define linkonce_odr hidden void @_ZN5o3dgc6VectorIhE8PushBackERKh(ptr noundef nonnull align 8 dereferenceable(24) %0, ptr noundef nonnull align 1 dereferenceable(1) %1) #0 comdat align 2 {
  %3 = alloca ptr, align 8
  %4 = alloca ptr, align 8
  %5 = alloca ptr, align 8
  store ptr %0, ptr %3, align 8
  store ptr %1, ptr %4, align 8
  %6 = load ptr, ptr %3, align 8
  %7 = getelementptr inbounds nuw %"class.o3dgc::Vector", ptr %6, i32 0, i32 2
  %8 = load i64, ptr %7, align 8
  %9 = getelementptr inbounds nuw %"class.o3dgc::Vector", ptr %6, i32 0, i32 1
  %10 = load i64, ptr %9, align 8
  %11 = icmp eq i64 %8, %10
  br i1 %11, label %12, label %43

12:                                               ; preds = %2
  %13 = getelementptr inbounds nuw %"class.o3dgc::Vector", ptr %6, i32 0, i32 1
  %14 = load i64, ptr %13, align 8
  %15 = mul i64 %14, 2
  store i64 %15, ptr %13, align 8
  %16 = getelementptr inbounds nuw %"class.o3dgc::Vector", ptr %6, i32 0, i32 1
  %17 = load i64, ptr %16, align 8
  %18 = icmp ult i64 %17, 32
  br i1 %18, label %19, label %21

19:                                               ; preds = %12
  %20 = getelementptr inbounds nuw %"class.o3dgc::Vector", ptr %6, i32 0, i32 1
  store i64 32, ptr %20, align 8
  br label %21

21:                                               ; preds = %19, %12
  call void @llvm.lifetime.start.p0(i64 8, ptr %5) #10
  %22 = getelementptr inbounds nuw %"class.o3dgc::Vector", ptr %6, i32 0, i32 1
  %23 = load i64, ptr %22, align 8
  %24 = call noalias noundef nonnull ptr @_Znam(i64 noundef %23) #12
  store ptr %24, ptr %5, align 8
  %25 = getelementptr inbounds nuw %"class.o3dgc::Vector", ptr %6, i32 0, i32 2
  %26 = load i64, ptr %25, align 8
  %27 = icmp ugt i64 %26, 0
  br i1 %27, label %28, label %40

28:                                               ; preds = %21
  %29 = load ptr, ptr %5, align 8
  %30 = getelementptr inbounds nuw %"class.o3dgc::Vector", ptr %6, i32 0, i32 0
  %31 = load ptr, ptr %30, align 8
  %32 = getelementptr inbounds nuw %"class.o3dgc::Vector", ptr %6, i32 0, i32 2
  %33 = load i64, ptr %32, align 8
  %34 = mul i64 %33, 1
  call void @llvm.memcpy.p0.p0.i64(ptr align 1 %29, ptr align 1 %31, i64 %34, i1 false)
  %35 = getelementptr inbounds nuw %"class.o3dgc::Vector", ptr %6, i32 0, i32 0
  %36 = load ptr, ptr %35, align 8
  %37 = icmp eq ptr %36, null
  br i1 %37, label %39, label %38

38:                                               ; preds = %28
  call void @_ZdaPv(ptr noundef %36) #11
  br label %39

39:                                               ; preds = %38, %28
  br label %40

40:                                               ; preds = %39, %21
  %41 = load ptr, ptr %5, align 8
  %42 = getelementptr inbounds nuw %"class.o3dgc::Vector", ptr %6, i32 0, i32 0
  store ptr %41, ptr %42, align 8
  call void @llvm.lifetime.end.p0(i64 8, ptr %5) #10
  br label %43

43:                                               ; preds = %40, %2
  %44 = load ptr, ptr %4, align 8
  %45 = load i8, ptr %44, align 1
  %46 = getelementptr inbounds nuw %"class.o3dgc::Vector", ptr %6, i32 0, i32 0
  %47 = load ptr, ptr %46, align 8
  %48 = getelementptr inbounds nuw %"class.o3dgc::Vector", ptr %6, i32 0, i32 2
  %49 = load i64, ptr %48, align 8
  %50 = add i64 %49, 1
  store i64 %50, ptr %48, align 8
  %51 = getelementptr inbounds nuw i8, ptr %47, i64 %49
  store i8 %45, ptr %51, align 1
  ret void
}

; Function Attrs: mustprogress nounwind uwtable
define linkonce_odr hidden noundef i64 @_ZNK5o3dgc6VectorIhE7GetSizeEv(ptr noundef nonnull align 8 dereferenceable(24) %0) #2 comdat align 2 {
  %2 = alloca ptr, align 8
  store ptr %0, ptr %2, align 8
  %3 = load ptr, ptr %2, align 8
  %4 = getelementptr inbounds nuw %"class.o3dgc::Vector", ptr %3, i32 0, i32 2
  %5 = load i64, ptr %4, align 8
  ret i64 %5
}

; Function Attrs: mustprogress uwtable
define linkonce_odr hidden void @_ZN5o3dgc12BinaryStream16WriteUInt32ASCIIEmm(ptr noundef nonnull align 8 dereferenceable(28) %0, i64 noundef %1, i64 noundef %2) #0 comdat align 2 {
  %4 = alloca ptr, align 8
  %5 = alloca i64, align 8
  %6 = alloca i64, align 8
  %7 = alloca i64, align 8
  %8 = alloca i64, align 8
  store ptr %0, ptr %4, align 8
  store i64 %1, ptr %5, align 8
  store i64 %2, ptr %6, align 8
  %9 = load ptr, ptr %4, align 8
  call void @llvm.lifetime.start.p0(i64 8, ptr %7) #10
  %10 = load i64, ptr %6, align 8
  store i64 %10, ptr %7, align 8
  call void @llvm.lifetime.start.p0(i64 8, ptr %8) #10
  store i64 0, ptr %8, align 8
  br label %11

11:                                               ; preds = %25, %3
  %12 = load i64, ptr %8, align 8
  %13 = icmp ult i64 %12, 5
  br i1 %13, label %15, label %14

14:                                               ; preds = %11
  call void @llvm.lifetime.end.p0(i64 8, ptr %8) #10
  br label %28

15:                                               ; preds = %11
  %16 = load i64, ptr %7, align 8
  %17 = and i64 %16, 127
  %18 = trunc i64 %17 to i8
  %19 = getelementptr inbounds nuw %"class.o3dgc::BinaryStream", ptr %9, i32 0, i32 0
  %20 = load i64, ptr %5, align 8
  %21 = add i64 %20, 1
  store i64 %21, ptr %5, align 8
  %22 = call noundef nonnull align 1 dereferenceable(1) ptr @_ZN5o3dgc6VectorIhEixEm(ptr noundef nonnull align 8 dereferenceable(24) %19, i64 noundef %20)
  store i8 %18, ptr %22, align 1
  %23 = load i64, ptr %7, align 8
  %24 = lshr i64 %23, 7
  store i64 %24, ptr %7, align 8
  br label %25

25:                                               ; preds = %15
  %26 = load i64, ptr %8, align 8
  %27 = add i64 %26, 1
  store i64 %27, ptr %8, align 8
  br label %11, !llvm.loop !7

28:                                               ; preds = %14
  call void @llvm.lifetime.end.p0(i64 8, ptr %7) #10
  ret void
}

; Function Attrs: mustprogress uwtable
define linkonce_odr hidden void @_ZN5o3dgc12BinaryStream13WriteIntASCIIEl(ptr noundef nonnull align 8 dereferenceable(28) %0, i64 noundef %1) #0 comdat align 2 {
  %3 = alloca ptr, align 8
  %4 = alloca i64, align 8
  store ptr %0, ptr %3, align 8
  store i64 %1, ptr %4, align 8
  %5 = load ptr, ptr %3, align 8
  %6 = load i64, ptr %4, align 8
  %7 = call noundef i64 @_ZN5o3dgc9IntToUIntEl(i64 noundef %6)
  call void @_ZN5o3dgc12BinaryStream14WriteUIntASCIIEm(ptr noundef nonnull align 8 dereferenceable(28) %5, i64 noundef %7)
  ret void
}

; Function Attrs: mustprogress nounwind uwtable
define linkonce_odr hidden noundef nonnull align 8 dereferenceable(8) ptr @_ZNK5o3dgc6VectorIlEixEm(ptr noundef nonnull align 8 dereferenceable(24) %0, i64 noundef %1) #2 comdat align 2 {
  %3 = alloca ptr, align 8
  %4 = alloca i64, align 8
  store ptr %0, ptr %3, align 8
  store i64 %1, ptr %4, align 8
  %5 = load ptr, ptr %3, align 8
  %6 = getelementptr inbounds nuw %"class.o3dgc::Vector.0", ptr %5, i32 0, i32 0
  %7 = load ptr, ptr %6, align 8
  %8 = load i64, ptr %4, align 8
  %9 = getelementptr inbounds nuw i64, ptr %7, i64 %8
  ret ptr %9
}

; Function Attrs: mustprogress nounwind uwtable
define linkonce_odr hidden noundef i64 @_ZNK5o3dgc6VectorIlE7GetSizeEv(ptr noundef nonnull align 8 dereferenceable(24) %0) #2 comdat align 2 {
  %2 = alloca ptr, align 8
  store ptr %0, ptr %2, align 8
  %3 = load ptr, ptr %2, align 8
  %4 = getelementptr inbounds nuw %"class.o3dgc::Vector.0", ptr %3, i32 0, i32 2
  %5 = load i64, ptr %4, align 8
  ret i64 %5
}

; Function Attrs: mustprogress uwtable
define linkonce_odr hidden void @_ZN5o3dgc12BinaryStream16WriteUInt32ASCIIEm(ptr noundef nonnull align 8 dereferenceable(28) %0, i64 noundef %1) #0 comdat align 2 {
  %3 = alloca ptr, align 8
  %4 = alloca i64, align 8
  %5 = alloca i64, align 8
  %6 = alloca i8, align 1
  store ptr %0, ptr %3, align 8
  store i64 %1, ptr %4, align 8
  %7 = load ptr, ptr %3, align 8
  call void @llvm.lifetime.start.p0(i64 8, ptr %5) #10
  store i64 0, ptr %5, align 8
  br label %8

8:                                                ; preds = %19, %2
  %9 = load i64, ptr %5, align 8
  %10 = icmp ult i64 %9, 5
  br i1 %10, label %12, label %11

11:                                               ; preds = %8
  call void @llvm.lifetime.end.p0(i64 8, ptr %5) #10
  br label %22

12:                                               ; preds = %8
  %13 = getelementptr inbounds nuw %"class.o3dgc::BinaryStream", ptr %7, i32 0, i32 0
  call void @llvm.lifetime.start.p0(i64 1, ptr %6) #10
  %14 = load i64, ptr %4, align 8
  %15 = and i64 %14, 127
  %16 = trunc i64 %15 to i8
  store i8 %16, ptr %6, align 1
  call void @_ZN5o3dgc6VectorIhE8PushBackERKh(ptr noundef nonnull align 8 dereferenceable(24) %13, ptr noundef nonnull align 1 dereferenceable(1) %6)
  call void @llvm.lifetime.end.p0(i64 1, ptr %6) #10
  %17 = load i64, ptr %4, align 8
  %18 = lshr i64 %17, 7
  store i64 %18, ptr %4, align 8
  br label %19

19:                                               ; preds = %12
  %20 = load i64, ptr %5, align 8
  %21 = add i64 %20, 1
  store i64 %21, ptr %5, align 8
  br label %8, !llvm.loop !5

22:                                               ; preds = %11
  ret void
}

; Function Attrs: mustprogress uwtable
define linkonce_odr hidden noundef i64 @_ZNK5o3dgc12BinaryStream7GetSizeEv(ptr noundef nonnull align 8 dereferenceable(28) %0) #0 comdat align 2 {
  %2 = alloca ptr, align 8
  store ptr %0, ptr %2, align 8
  %3 = load ptr, ptr %2, align 8
  %4 = getelementptr inbounds nuw %"class.o3dgc::BinaryStream", ptr %3, i32 0, i32 0
  %5 = call noundef i64 @_ZNK5o3dgc6VectorIhE7GetSizeEv(ptr noundef nonnull align 8 dereferenceable(24) %4)
  ret i64 %5
}

; Function Attrs: mustprogress uwtable
define hidden noundef i32 @_ZN5o3dgc11SaveIntDataERKNS_6VectorIlEERNS_12BinaryStreamE(ptr noundef nonnull align 8 dereferenceable(24) %0, ptr noundef nonnull align 8 dereferenceable(28) %1) #0 {
  %3 = alloca ptr, align 8
  %4 = alloca ptr, align 8
  %5 = alloca i64, align 8
  %6 = alloca i64, align 8
  %7 = alloca i64, align 8
  store ptr %0, ptr %3, align 8
  store ptr %1, ptr %4, align 8
  call void @llvm.lifetime.start.p0(i64 8, ptr %5) #10
  %8 = load ptr, ptr %4, align 8
  %9 = call noundef i64 @_ZNK5o3dgc12BinaryStream7GetSizeEv(ptr noundef nonnull align 8 dereferenceable(28) %8)
  store i64 %9, ptr %5, align 8
  %10 = load ptr, ptr %4, align 8
  call void @_ZN5o3dgc12BinaryStream16WriteUInt32ASCIIEm(ptr noundef nonnull align 8 dereferenceable(28) %10, i64 noundef 0)
  call void @llvm.lifetime.start.p0(i64 8, ptr %6) #10
  %11 = load ptr, ptr %3, align 8
  %12 = call noundef i64 @_ZNK5o3dgc6VectorIlE7GetSizeEv(ptr noundef nonnull align 8 dereferenceable(24) %11)
  store i64 %12, ptr %6, align 8
  %13 = load ptr, ptr %4, align 8
  %14 = load i64, ptr %6, align 8
  call void @_ZN5o3dgc12BinaryStream16WriteUInt32ASCIIEm(ptr noundef nonnull align 8 dereferenceable(28) %13, i64 noundef %14)
  call void @llvm.lifetime.start.p0(i64 8, ptr %7) #10
  store i64 0, ptr %7, align 8
  br label %15

15:                                               ; preds = %26, %2
  %16 = load i64, ptr %7, align 8
  %17 = load i64, ptr %6, align 8
  %18 = icmp ult i64 %16, %17
  br i1 %18, label %20, label %19

19:                                               ; preds = %15
  call void @llvm.lifetime.end.p0(i64 8, ptr %7) #10
  br label %29

20:                                               ; preds = %15
  %21 = load ptr, ptr %4, align 8
  %22 = load ptr, ptr %3, align 8
  %23 = load i64, ptr %7, align 8
  %24 = call noundef nonnull align 8 dereferenceable(8) ptr @_ZNK5o3dgc6VectorIlEixEm(ptr noundef nonnull align 8 dereferenceable(24) %22, i64 noundef %23)
  %25 = load i64, ptr %24, align 8
  call void @_ZN5o3dgc12BinaryStream13WriteIntASCIIEl(ptr noundef nonnull align 8 dereferenceable(28) %21, i64 noundef %25)
  br label %26

26:                                               ; preds = %20
  %27 = load i64, ptr %7, align 8
  %28 = add i64 %27, 1
  store i64 %28, ptr %7, align 8
  br label %15, !llvm.loop !8

29:                                               ; preds = %19
  %30 = load ptr, ptr %4, align 8
  %31 = load i64, ptr %5, align 8
  %32 = load ptr, ptr %4, align 8
  %33 = call noundef i64 @_ZNK5o3dgc12BinaryStream7GetSizeEv(ptr noundef nonnull align 8 dereferenceable(28) %32)
  %34 = load i64, ptr %5, align 8
  %35 = sub i64 %33, %34
  call void @_ZN5o3dgc12BinaryStream16WriteUInt32ASCIIEmm(ptr noundef nonnull align 8 dereferenceable(28) %30, i64 noundef %31, i64 noundef %35)
  call void @llvm.lifetime.end.p0(i64 8, ptr %6) #10
  call void @llvm.lifetime.end.p0(i64 8, ptr %5) #10
  ret i32 0
}