; Function Attrs: mustprogress uwtable
define hidden noundef i32 @_ZN5o3dgc11SaveIntDataERKNS_6VectorIlEERNS_12BinaryStreamE(ptr noundef nonnull readonly align 8 captures(none) dereferenceable(24) %0, ptr noundef nonnull align 8 dereferenceable(28) %1) local_unnamed_addr #0 {
  %3 = getelementptr inbounds nuw i8, ptr %1, i64 16
  %4 = load i64, ptr %3, align 8
  %5 = getelementptr inbounds nuw i8, ptr %1, i64 8
  br label %6

thread-pre-split:                                 ; preds = %_ZN5o3dgc6VectorIhE8PushBackERKh.exit.i
  %.pr = load i64, ptr %3, align 8
  br label %6

6:                                                ; preds = %thread-pre-split, %2
  %7 = phi i64 [ %.pr, %thread-pre-split ], [ %4, %2 ]
  %.06.i = phi i64 [ %22, %thread-pre-split ], [ 0, %2 ]
  %8 = load i64, ptr %5, align 8
  %9 = icmp eq i64 %7, %8
  br i1 %9, label %10, label %._crit_edge.i.i

._crit_edge.i.i:                                  ; preds = %6
  %.pre.i.i = load ptr, ptr %1, align 8
  br label %_ZN5o3dgc6VectorIhE8PushBackERKh.exit.i

10:                                               ; preds = %6
  %11 = shl i64 %7, 1
  %spec.select.i.i = tail call i64 @llvm.umax.i64(i64 %11, i64 32)
  store i64 %spec.select.i.i, ptr %5, align 8
  %12 = tail call noalias noundef nonnull ptr @_Znam(i64 noundef %spec.select.i.i) #8
  %.not.i.i = icmp eq i64 %7, 0
  br i1 %.not.i.i, label %17, label %13

13:                                               ; preds = %10
  %14 = load ptr, ptr %1, align 8
  tail call void @llvm.memcpy.p0.p0.i64(ptr nonnull align 1 %12, ptr align 1 %14, i64 %7, i1 false)
  %15 = icmp eq ptr %14, null
  br i1 %15, label %17, label %16

16:                                               ; preds = %13
  tail call void @_ZdaPv(ptr noundef nonnull %14) #9
  %.pre6.pre.i.i = load i64, ptr %3, align 8
  br label %17

17:                                               ; preds = %16, %13, %10
  %.pre6.i.i = phi i64 [ %7, %13 ], [ %.pre6.pre.i.i, %16 ], [ 0, %10 ]
  store ptr %12, ptr %1, align 8
  br label %_ZN5o3dgc6VectorIhE8PushBackERKh.exit.i

_ZN5o3dgc6VectorIhE8PushBackERKh.exit.i:          ; preds = %17, %._crit_edge.i.i
  %18 = phi i64 [ %7, %._crit_edge.i.i ], [ %.pre6.i.i, %17 ]
  %19 = phi ptr [ %.pre.i.i, %._crit_edge.i.i ], [ %12, %17 ]
  %20 = add i64 %18, 1
  store i64 %20, ptr %3, align 8
  %21 = getelementptr inbounds nuw i8, ptr %19, i64 %18
  store i8 0, ptr %21, align 1
  %22 = add nuw nsw i64 %.06.i, 1
  %exitcond.not.i = icmp eq i64 %22, 5
  br i1 %exitcond.not.i, label %_ZN5o3dgc12BinaryStream16WriteUInt32ASCIIEm.exit, label %thread-pre-split, !llvm.loop !3

_ZN5o3dgc12BinaryStream16WriteUInt32ASCIIEm.exit: ; preds = %_ZN5o3dgc6VectorIhE8PushBackERKh.exit.i
  %23 = getelementptr inbounds nuw i8, ptr %0, i64 16
  %24 = load i64, ptr %23, align 8
  br label %25

25:                                               ; preds = %_ZN5o3dgc6VectorIhE8PushBackERKh.exit.i18, %_ZN5o3dgc12BinaryStream16WriteUInt32ASCIIEm.exit
  %.06.i14 = phi i64 [ 0, %_ZN5o3dgc12BinaryStream16WriteUInt32ASCIIEm.exit ], [ %44, %_ZN5o3dgc6VectorIhE8PushBackERKh.exit.i18 ]
  %.045.i15 = phi i64 [ %24, %_ZN5o3dgc12BinaryStream16WriteUInt32ASCIIEm.exit ], [ %43, %_ZN5o3dgc6VectorIhE8PushBackERKh.exit.i18 ]
  %26 = trunc i64 %.045.i15 to i8
  %27 = and i8 %26, 127
  %28 = load i64, ptr %3, align 8
  %29 = load i64, ptr %5, align 8
  %30 = icmp eq i64 %28, %29
  br i1 %30, label %31, label %._crit_edge.i.i16

._crit_edge.i.i16:                                ; preds = %25
  %.pre.i.i17 = load ptr, ptr %1, align 8
  br label %_ZN5o3dgc6VectorIhE8PushBackERKh.exit.i18

31:                                               ; preds = %25
  %32 = shl i64 %28, 1
  %spec.select.i.i20 = tail call i64 @llvm.umax.i64(i64 %32, i64 32)
  store i64 %spec.select.i.i20, ptr %5, align 8
  %33 = tail call noalias noundef nonnull ptr @_Znam(i64 noundef %spec.select.i.i20) #8
  %.not.i.i21 = icmp eq i64 %28, 0
  br i1 %.not.i.i21, label %38, label %34

34:                                               ; preds = %31
  %35 = load ptr, ptr %1, align 8
  tail call void @llvm.memcpy.p0.p0.i64(ptr nonnull align 1 %33, ptr align 1 %35, i64 %28, i1 false)
  %36 = icmp eq ptr %35, null
  br i1 %36, label %38, label %37

37:                                               ; preds = %34
  tail call void @_ZdaPv(ptr noundef nonnull %35) #9
  %.pre6.pre.i.i22 = load i64, ptr %3, align 8
  br label %38

38:                                               ; preds = %37, %34, %31
  %.pre6.i.i23 = phi i64 [ %28, %34 ], [ %.pre6.pre.i.i22, %37 ], [ 0, %31 ]
  store ptr %33, ptr %1, align 8
  br label %_ZN5o3dgc6VectorIhE8PushBackERKh.exit.i18

_ZN5o3dgc6VectorIhE8PushBackERKh.exit.i18:        ; preds = %38, %._crit_edge.i.i16
  %39 = phi i64 [ %28, %._crit_edge.i.i16 ], [ %.pre6.i.i23, %38 ]
  %40 = phi ptr [ %.pre.i.i17, %._crit_edge.i.i16 ], [ %33, %38 ]
  %41 = add i64 %39, 1
  store i64 %41, ptr %3, align 8
  %42 = getelementptr inbounds nuw i8, ptr %40, i64 %39
  store i8 %27, ptr %42, align 1
  %43 = lshr i64 %.045.i15, 7
  %44 = add nuw nsw i64 %.06.i14, 1
  %exitcond.not.i19 = icmp eq i64 %44, 5
  br i1 %exitcond.not.i19, label %_ZN5o3dgc12BinaryStream16WriteUInt32ASCIIEm.exit24.preheader, label %25, !llvm.loop !3

_ZN5o3dgc12BinaryStream16WriteUInt32ASCIIEm.exit24.preheader: ; preds = %_ZN5o3dgc6VectorIhE8PushBackERKh.exit.i18
  %.not = icmp eq i64 %24, 0
  br i1 %.not, label %_ZN5o3dgc12BinaryStream16WriteUInt32ASCIIEm.exit24._crit_edge, label %_ZN5o3dgc12BinaryStream16WriteUInt32ASCIIEm.exit24

_ZN5o3dgc12BinaryStream16WriteUInt32ASCIIEm.exit24._crit_edge: ; preds = %_ZN5o3dgc12BinaryStream16WriteUInt32ASCIIEm.exit24, %_ZN5o3dgc12BinaryStream16WriteUInt32ASCIIEm.exit24.preheader
  %45 = load i64, ptr %3, align 8
  %46 = sub i64 %45, %4
  br label %47

47:                                               ; preds = %47, %_ZN5o3dgc12BinaryStream16WriteUInt32ASCIIEm.exit24._crit_edge
  %.010.i = phi i64 [ 0, %_ZN5o3dgc12BinaryStream16WriteUInt32ASCIIEm.exit24._crit_edge ], [ %54, %47 ]
  %.069.i = phi i64 [ %46, %_ZN5o3dgc12BinaryStream16WriteUInt32ASCIIEm.exit24._crit_edge ], [ %53, %47 ]
  %.078.i = phi i64 [ %4, %_ZN5o3dgc12BinaryStream16WriteUInt32ASCIIEm.exit24._crit_edge ], [ %50, %47 ]
  %48 = trunc i64 %.069.i to i8
  %49 = and i8 %48, 127
  %50 = add i64 %.078.i, 1
  %51 = load ptr, ptr %1, align 8
  %52 = getelementptr inbounds nuw i8, ptr %51, i64 %.078.i
  store i8 %49, ptr %52, align 1
  %53 = lshr i64 %.069.i, 7
  %54 = add nuw nsw i64 %.010.i, 1
  %exitcond.not.i25 = icmp eq i64 %54, 5
  br i1 %exitcond.not.i25, label %_ZN5o3dgc12BinaryStream16WriteUInt32ASCIIEmm.exit, label %47, !llvm.loop !5

_ZN5o3dgc12BinaryStream16WriteUInt32ASCIIEmm.exit: ; preds = %47
  ret i32 0

_ZN5o3dgc12BinaryStream16WriteUInt32ASCIIEm.exit24: ; preds = %_ZN5o3dgc12BinaryStream16WriteUInt32ASCIIEm.exit24.preheader, %_ZN5o3dgc12BinaryStream16WriteUInt32ASCIIEm.exit24
  %.026 = phi i64 [ %60, %_ZN5o3dgc12BinaryStream16WriteUInt32ASCIIEm.exit24 ], [ 0, %_ZN5o3dgc12BinaryStream16WriteUInt32ASCIIEm.exit24.preheader ]
  %55 = load ptr, ptr %0, align 8
  %56 = getelementptr inbounds nuw i64, ptr %55, i64 %.026
  %57 = load i64, ptr %56, align 8
  %58 = shl nsw i64 %57, 1
  %.lobit.i.i = ashr i64 %57, 63
  %59 = xor i64 %58, %.lobit.i.i
  tail call void @_ZN5o3dgc12BinaryStream14WriteUIntASCIIEm(ptr noundef nonnull align 8 dereferenceable(28) %1, i64 noundef %59)
  %60 = add nuw i64 %.026, 1
  %exitcond.not = icmp eq i64 %60, %24
  br i1 %exitcond.not, label %_ZN5o3dgc12BinaryStream16WriteUInt32ASCIIEm.exit24._crit_edge, label %_ZN5o3dgc12BinaryStream16WriteUInt32ASCIIEm.exit24, !llvm.loop !8
}